-----BEGIN RSA PRIVATE KEY-----
MIICXQIBAAKBgQC4/DjwDgFhXqp5gsOE4Zd8ttzk3VU8FWxSfMDXZA+XCQzEeRe3
hhszkcvyyqc7Fcm5eVbHWPsfHvN5usoRIRxMLrrrXaD+SQFSe5vlb0ODj5AqCP5u
2iCLFnLSYXVDFKF1p89V7Tf2dmAZbp0XAbo66rlq1Sn0j8WSrfwuJOvQTQIDAQAB
AoGALmus5iC9m++jnAaChhAOcc95sz0PrJo7qp9/zQ1hFCfDOnKgzv8qSFCn+297
c8pN6utWKYRc0Dx2IPAM0Sub69wlrJP0LV2rOgrnfdMNaAV1As3C5DGCqgfE/2pm
ztk0SoNDluwlvu+ZEo5SdoQciceUEVxJ7fOkgHjCt7GJxUECQQD2bSx6AOB0Tpda
V5oH+1oSPZ+RTh/lsKfVjMryYpsk8GXGVT579c1t77+AzPOOYkzYVvxOoi5QG5HN
w/gIKgu5AkEAwCv8sT3nscI1SmZPiRp5dGcNjZxKhx5cEh87R0BWrlvLnWOkcbcL
d7SHRFBD+Ym2R/citowZGR2If8jgJwH7NQJBAOwz5SfkY0DYfBbqVQhFkyZczvBW
dBiT5au50mXWwmL70nHzD3t+NjSkU2lACkx2SLYtWpZ8ueurIWyb5MjelHECQQCB
7DtHSWcf0wFcb5dORkve2t1a5FOuzmPJDLxzC5iPARjEK92909c48yCQmwOZ7fUC
6p7ZdBZz2He0jQae2MQRAkBS9lTJkokJO8UhZCMvJ733RIq+VXr354UMtPQuFq1G
9kIAbp6/sM2VPvAwdD8Y1gkwy+dmxviwEjnywIyT61yV
-----END RSA PRIVATE KEY-----
Certificate:
    Data:
        Version: 3 (0x2)
        Serial Number: 1 (0x1)
    Signature Algorithm: sha1WithRSAEncryption
        Issuer: C=KR, CN=gilgil
        Validity
            Not Before: Mar  1 00:00:00 2014 GMT
            Not After : Feb 27 00:00:00 2024 GMT
        Subject: C=KR, CN=default
        Subject Public Key Info:
            Public Key Algorithm: rsaEncryption
                Public-Key: (1024 bit)
                Modulus:
                    00:b8:fc:38:f0:0e:01:61:5e:aa:79:82:c3:84:e1:
                    97:7c:b6:dc:e4:dd:55:3c:15:6c:52:7c:c0:d7:64:
                    0f:97:09:0c:c4:79:17:b7:86:1b:33:91:cb:f2:ca:
                    a7:3b:15:c9:b9:79:56:c7:58:fb:1f:1e:f3:79:ba:
                    ca:11:21:1c:4c:2e:ba:eb:5d:a0:fe:49:01:52:7b:
                    9b:e5:6f:43:83:8f:90:2a:08:fe:6e:da:20:8b:16:
                    72:d2:61:75:43:14:a1:75:a7:cf:55:ed:37:f6:76:
                    60:19:6e:9d:17:01:ba:3a:ea:b9:6a:d5:29:f4:8f:
                    c5:92:ad:fc:2e:24:eb:d0:4d
                Exponent: 65537 (0x10001)
        X509v3 extensions:
            X509v3 Basic Constraints: 
                CA:FALSE
            Netscape Comment: 
                OpenSSL Generated Certificate
            X509v3 Subject Key Identifier: 
                3E:E5:4D:45:43:B6:22:8E:8E:96:91:4A:8C:50:65:D8:2B:C5:BF:AA
            X509v3 Authority Key Identifier: 
                DirName:/C=KR/CN=gilgil
                serial:BC:FE:EF:E9:4A:BC:63:F0

    Signature Algorithm: sha1WithRSAEncryption
         bb:24:26:d8:ca:ee:cf:2a:7e:52:de:4e:64:2c:0d:02:8c:dc:
         13:fc:28:4a:18:9b:55:57:fa:65:6f:ab:93:23:99:6f:96:86:
         e8:21:b1:46:68:cd:46:15:5f:b5:13:d5:58:17:1a:1f:ed:cd:
         71:3a:73:28:b2:49:5f:17:a5:5c:c2:d4:c0:c3:32:e6:90:24:
         45:8b:5d:11:2e:a0:8b:c1:88:4e:e2:a3:cd:57:2c:93:2e:ec:
         1f:d4:b1:e3:16:65:b2:10:86:fb:1b:d1:37:aa:86:0a:28:e1:
         3f:ac:0d:5c:d3:ac:0a:79:f7:b2:47:29:ba:d7:d2:b3:37:ab:
         86:ca
-----BEGIN CERTIFICATE-----
MIICTTCCAbagAwIBAgIBATANBgkqhkiG9w0BAQUFADAeMQswCQYDVQQGEwJLUjEP
MA0GA1UEAwwGZ2lsZ2lsMCIYDzIwMTQwMzAxMDAwMDAwWhgPMjAyNDAyMjcwMDAw
MDBaMB8xCzAJBgNVBAYTAktSMRAwDgYDVQQDDAdkZWZhdWx0MIGfMA0GCSqGSIb3
DQEBAQUAA4GNADCBiQKBgQC4/DjwDgFhXqp5gsOE4Zd8ttzk3VU8FWxSfMDXZA+X
CQzEeRe3hhszkcvyyqc7Fcm5eVbHWPsfHvN5usoRIRxMLrrrXaD+SQFSe5vlb0OD
j5AqCP5u2iCLFnLSYXVDFKF1p89V7Tf2dmAZbp0XAbo66rlq1Sn0j8WSrfwuJOvQ
TQIDAQABo4GVMIGSMAkGA1UdEwQCMAAwLAYJYIZIAYb4QgENBB8WHU9wZW5TU0wg
R2VuZXJhdGVkIENlcnRpZmljYXRlMB0GA1UdDgQWBBQ+5U1FQ7Yijo6WkUqMUGXY
K8W/qjA4BgNVHSMEMTAvoSKkIDAeMQswCQYDVQQGEwJLUjEPMA0GA1UEAwwGZ2ls
Z2lsggkAvP7v6Uq8Y/AwDQYJKoZIhvcNAQEFBQADgYEAuyQm2Mruzyp+Ut5OZCwN
AozcE/woShibVVf6ZW+rkyOZb5aG6CGxRmjNRhVftRPVWBcaH+3NcTpzKLJJXxel
XMLUwMMy5pAkRYtdES6gi8GITuKjzVcsky7sH9Sx4xZlshCG+xvRN6qGCijhP6wN
XNOsCnn3skcputfSszerhso=
-----END CERTIFICATE-----
