Certificate:
    Data:
        Version: 3 (0x2)
        Serial Number: 1 (0x1)
    Signature Algorithm: sha1WithRSAEncryption
        Issuer: C=KR, CN=VDream
        Validity
            Not Before: Feb 27 01:50:28 2014 GMT
            Not After : Feb 25 01:50:28 2024 GMT
        Subject: C=KR, CN=test.com
        Subject Public Key Info:
            Public Key Algorithm: rsaEncryption
                Public-Key: (1024 bit)
                Modulus:
                    00:d9:46:58:0b:03:e6:0a:26:6d:e8:29:12:97:59:
                    8f:3c:1d:a3:52:2e:e2:6e:a0:cc:92:d9:21:46:0a:
                    95:41:0f:b5:93:d6:82:3f:9d:c5:3a:13:eb:f3:9d:
                    c7:99:1f:8a:1a:fe:76:b4:c4:59:96:46:ea:c7:b8:
                    38:58:b9:37:fd:e2:2c:19:92:19:71:59:50:c8:4b:
                    fa:bc:2d:be:3c:c0:0e:a5:82:9d:fa:5c:36:59:63:
                    24:0a:fb:03:1f:b9:40:2a:c0:4c:49:2d:c9:6d:f7:
                    0a:3a:0c:56:91:9f:d4:42:0a:f8:c7:82:42:61:4e:
                    12:ac:6b:72:93:08:70:12:3b
                Exponent: 65537 (0x10001)
        X509v3 extensions:
            X509v3 Basic Constraints: 
                CA:FALSE
            Netscape Comment: 
                OpenSSL Generated Certificate
            X509v3 Subject Key Identifier: 
                1A:1D:6E:32:E2:48:CA:73:85:71:C4:FD:97:CE:79:CC:9A:D9:3B:9A
            X509v3 Authority Key Identifier: 
                DirName:/C=KR/CN=VDream
                serial:CA:20:DA:C3:BB:AC:3C:B6

    Signature Algorithm: sha1WithRSAEncryption
         70:77:f2:b2:62:bb:e8:9b:81:54:a4:9a:d4:4b:11:65:f9:85:
         92:35:68:68:07:64:cd:10:ee:85:c3:ff:ff:26:cd:fd:93:04:
         37:72:e5:dc:3c:08:38:a1:24:95:48:e1:e2:5a:d0:52:36:17:
         d3:41:d6:c5:d2:83:06:60:7b:c9:83:d7:cc:c1:68:61:f6:cc:
         ea:99:68:60:b8:ab:ef:24:ed:9d:d5:33:4a:75:9a:13:7c:07:
         bc:4a:55:99:c5:ea:25:f9:47:2f:8f:76:d2:3c:2a:fa:25:0d:
         c5:7b:3d:34:6e:16:44:16:c1:94:6c:83:a6:75:b0:26:28:d5:
         6c:d4
-----BEGIN CERTIFICATE-----
MIICSjCCAbOgAwIBAgIBATANBgkqhkiG9w0BAQUFADAeMQswCQYDVQQGEwJLUjEP
MA0GA1UEAwwGVkRyZWFtMB4XDTE0MDIyNzAxNTAyOFoXDTI0MDIyNTAxNTAyOFow
IDELMAkGA1UEBhMCS1IxETAPBgNVBAMMCHRlc3QuY29tMIGfMA0GCSqGSIb3DQEB
AQUAA4GNADCBiQKBgQDZRlgLA+YKJm3oKRKXWY88HaNSLuJuoMyS2SFGCpVBD7WT
1oI/ncU6E+vznceZH4oa/na0xFmWRurHuDhYuTf94iwZkhlxWVDIS/q8Lb48wA6l
gp36XDZZYyQK+wMfuUAqwExJLclt9wo6DFaRn9RCCvjHgkJhThKsa3KTCHASOwID
AQABo4GVMIGSMAkGA1UdEwQCMAAwLAYJYIZIAYb4QgENBB8WHU9wZW5TU0wgR2Vu
ZXJhdGVkIENlcnRpZmljYXRlMB0GA1UdDgQWBBQaHW4y4kjKc4VxxP2XznnMmtk7
mjA4BgNVHSMEMTAvoSKkIDAeMQswCQYDVQQGEwJLUjEPMA0GA1UEAwwGVkRyZWFt
ggkAyiDaw7usPLYwDQYJKoZIhvcNAQEFBQADgYEAcHfysmK76JuBVKSa1EsRZfmF
kjVoaAdkzRDuhcP//ybN/ZMEN3Ll3DwIOKEklUjh4lrQUjYX00HWxdKDBmB7yYPX
zMFoYfbM6ploYLir7yTtndUzSnWaE3wHvEpVmcXqJflHL4920jwq+iUNxXs9NG4W
RBbBlGyDpnWwJijVbNQ=
-----END CERTIFICATE-----
